; ModuleID = '2/993.c'
source_filename = "2/993.c"
target datalayout = "e-m:e-p270:32:32-p271:32:32-p272:64:64-i64:64-f80:128-n8:16:32:64-S128"
target triple = "x86_64-pc-linux-gnu"

%struct.book = type { i32, [27 x i8] }

@.str = private unnamed_addr constant [3 x i8] c"%d\00", align 1
@.str.1 = private unnamed_addr constant [5 x i8] c"%d%s\00", align 1
@.str.2 = private unnamed_addr constant [6 x i8] c"%c\0A%d\00", align 1
@.str.3 = private unnamed_addr constant [4 x i8] c"\0A%d\00", align 1

; Function Attrs: noinline nounwind uwtable
define dso_local i32 @main(i32 %0, i8** %1) #0 {
  %3 = alloca i32, align 4
  %4 = alloca i32, align 4
  %5 = alloca i8**, align 8
  %6 = alloca [1000 x %struct.book], align 16
  %7 = alloca i8, align 1
  %8 = alloca i32, align 4
  %9 = alloca i32, align 4
  %10 = alloca i32, align 4
  %11 = alloca [26 x i32], align 16
  %12 = alloca i32, align 4
  store i32 0, i32* %3, align 4
  store i32 %0, i32* %4, align 4
  store i8** %1, i8*** %5, align 8
  %13 = bitcast [26 x i32]* %11 to i8*
  call void @llvm.memset.p0i8.i64(i8* align 16 %13, i8 0, i64 104, i1 false)
  %14 = call i32 (i8*, ...) @__isoc99_scanf(i8* getelementptr inbounds ([3 x i8], [3 x i8]* @.str, i64 0, i64 0), i32* %8)
  store i32 0, i32* %9, align 4
  br label %15

15:                                               ; preds = %30, %2
  %16 = load i32, i32* %9, align 4
  %17 = load i32, i32* %8, align 4
  %18 = icmp slt i32 %16, %17
  br i1 %18, label %19, label %33

19:                                               ; preds = %15
  %20 = load i32, i32* %9, align 4
  %21 = sext i32 %20 to i64
  %22 = getelementptr inbounds [1000 x %struct.book], [1000 x %struct.book]* %6, i64 0, i64 %21
  %23 = getelementptr inbounds %struct.book, %struct.book* %22, i32 0, i32 0
  %24 = load i32, i32* %9, align 4
  %25 = sext i32 %24 to i64
  %26 = getelementptr inbounds [1000 x %struct.book], [1000 x %struct.book]* %6, i64 0, i64 %25
  %27 = getelementptr inbounds %struct.book, %struct.book* %26, i32 0, i32 1
  %28 = getelementptr inbounds [27 x i8], [27 x i8]* %27, i64 0, i64 0
  %29 = call i32 (i8*, ...) @__isoc99_scanf(i8* getelementptr inbounds ([5 x i8], [5 x i8]* @.str.1, i64 0, i64 0), i32* %23, i8* %28)
  br label %30

30:                                               ; preds = %19
  %31 = load i32, i32* %9, align 4
  %32 = add nsw i32 %31, 1
  store i32 %32, i32* %9, align 4
  br label %15

33:                                               ; preds = %15
  store i32 0, i32* %9, align 4
  br label %34

34:                                               ; preds = %71, %33
  %35 = load i32, i32* %9, align 4
  %36 = load i32, i32* %8, align 4
  %37 = icmp slt i32 %35, %36
  br i1 %37, label %38, label %74

38:                                               ; preds = %34
  store i32 0, i32* %10, align 4
  br label %39

39:                                               ; preds = %67, %38
  %40 = load i32, i32* %9, align 4
  %41 = sext i32 %40 to i64
  %42 = getelementptr inbounds [1000 x %struct.book], [1000 x %struct.book]* %6, i64 0, i64 %41
  %43 = getelementptr inbounds %struct.book, %struct.book* %42, i32 0, i32 1
  %44 = load i32, i32* %10, align 4
  %45 = sext i32 %44 to i64
  %46 = getelementptr inbounds [27 x i8], [27 x i8]* %43, i64 0, i64 %45
  %47 = load i8, i8* %46, align 1
  %48 = sext i8 %47 to i32
  %49 = icmp eq i32 %48, 0
  br i1 %49, label %50, label %51

50:                                               ; preds = %39
  br label %70

51:                                               ; preds = %39
  %52 = load i32, i32* %9, align 4
  %53 = sext i32 %52 to i64
  %54 = getelementptr inbounds [1000 x %struct.book], [1000 x %struct.book]* %6, i64 0, i64 %53
  %55 = getelementptr inbounds %struct.book, %struct.book* %54, i32 0, i32 1
  %56 = load i32, i32* %10, align 4
  %57 = sext i32 %56 to i64
  %58 = getelementptr inbounds [27 x i8], [27 x i8]* %55, i64 0, i64 %57
  %59 = load i8, i8* %58, align 1
  %60 = sext i8 %59 to i32
  %61 = sub nsw i32 %60, 65
  %62 = sext i32 %61 to i64
  %63 = getelementptr inbounds [26 x i32], [26 x i32]* %11, i64 0, i64 %62
  %64 = load i32, i32* %63, align 4
  %65 = add nsw i32 %64, 1
  store i32 %65, i32* %63, align 4
  br label %66

66:                                               ; preds = %51
  br label %67

67:                                               ; preds = %66
  %68 = load i32, i32* %10, align 4
  %69 = add nsw i32 %68, 1
  store i32 %69, i32* %10, align 4
  br label %39

70:                                               ; preds = %50
  br label %71

71:                                               ; preds = %70
  %72 = load i32, i32* %9, align 4
  %73 = add nsw i32 %72, 1
  store i32 %73, i32* %9, align 4
  br label %34

74:                                               ; preds = %34
  %75 = getelementptr inbounds [26 x i32], [26 x i32]* %11, i64 0, i64 0
  %76 = load i32, i32* %75, align 16
  store i32 %76, i32* %12, align 4
  store i8 65, i8* %7, align 1
  store i32 0, i32* %9, align 4
  br label %77

77:                                               ; preds = %96, %74
  %78 = load i32, i32* %9, align 4
  %79 = icmp slt i32 %78, 26
  br i1 %79, label %80, label %99

80:                                               ; preds = %77
  %81 = load i32, i32* %9, align 4
  %82 = sext i32 %81 to i64
  %83 = getelementptr inbounds [26 x i32], [26 x i32]* %11, i64 0, i64 %82
  %84 = load i32, i32* %83, align 4
  %85 = load i32, i32* %12, align 4
  %86 = icmp sgt i32 %84, %85
  br i1 %86, label %87, label %95

87:                                               ; preds = %80
  %88 = load i32, i32* %9, align 4
  %89 = sext i32 %88 to i64
  %90 = getelementptr inbounds [26 x i32], [26 x i32]* %11, i64 0, i64 %89
  %91 = load i32, i32* %90, align 4
  store i32 %91, i32* %12, align 4
  %92 = load i32, i32* %9, align 4
  %93 = add nsw i32 %92, 65
  %94 = trunc i32 %93 to i8
  store i8 %94, i8* %7, align 1
  br label %95

95:                                               ; preds = %87, %80
  br label %96

96:                                               ; preds = %95
  %97 = load i32, i32* %9, align 4
  %98 = add nsw i32 %97, 1
  store i32 %98, i32* %9, align 4
  br label %77

99:                                               ; preds = %77
  %100 = load i8, i8* %7, align 1
  %101 = sext i8 %100 to i32
  %102 = load i32, i32* %12, align 4
  %103 = call i32 (i8*, ...) @printf(i8* getelementptr inbounds ([6 x i8], [6 x i8]* @.str.2, i64 0, i64 0), i32 %101, i32 %102)
  store i32 0, i32* %9, align 4
  br label %104

104:                                              ; preds = %146, %99
  %105 = load i32, i32* %9, align 4
  %106 = load i32, i32* %8, align 4
  %107 = icmp slt i32 %105, %106
  br i1 %107, label %108, label %149

108:                                              ; preds = %104
  store i32 0, i32* %10, align 4
  br label %109

109:                                              ; preds = %142, %108
  %110 = load i32, i32* %9, align 4
  %111 = sext i32 %110 to i64
  %112 = getelementptr inbounds [1000 x %struct.book], [1000 x %struct.book]* %6, i64 0, i64 %111
  %113 = getelementptr inbounds %struct.book, %struct.book* %112, i32 0, i32 1
  %114 = load i32, i32* %10, align 4
  %115 = sext i32 %114 to i64
  %116 = getelementptr inbounds [27 x i8], [27 x i8]* %113, i64 0, i64 %115
  %117 = load i8, i8* %116, align 1
  %118 = sext i8 %117 to i32
  %119 = icmp eq i32 %118, 0
  br i1 %119, label %120, label %121

120:                                              ; preds = %109
  br label %145

121:                                              ; preds = %109
  %122 = load i32, i32* %9, align 4
  %123 = sext i32 %122 to i64
  %124 = getelementptr inbounds [1000 x %struct.book], [1000 x %struct.book]* %6, i64 0, i64 %123
  %125 = getelementptr inbounds %struct.book, %struct.book* %124, i32 0, i32 1
  %126 = load i32, i32* %10, align 4
  %127 = sext i32 %126 to i64
  %128 = getelementptr inbounds [27 x i8], [27 x i8]* %125, i64 0, i64 %127
  %129 = load i8, i8* %128, align 1
  %130 = sext i8 %129 to i32
  %131 = load i8, i8* %7, align 1
  %132 = sext i8 %131 to i32
  %133 = icmp eq i32 %130, %132
  br i1 %133, label %134, label %141

134:                                              ; preds = %121
  %135 = load i32, i32* %9, align 4
  %136 = sext i32 %135 to i64
  %137 = getelementptr inbounds [1000 x %struct.book], [1000 x %struct.book]* %6, i64 0, i64 %136
  %138 = getelementptr inbounds %struct.book, %struct.book* %137, i32 0, i32 0
  %139 = load i32, i32* %138, align 16
  %140 = call i32 (i8*, ...) @printf(i8* getelementptr inbounds ([4 x i8], [4 x i8]* @.str.3, i64 0, i64 0), i32 %139)
  br label %141

141:                                              ; preds = %134, %121
  br label %142

142:                                              ; preds = %141
  %143 = load i32, i32* %10, align 4
  %144 = add nsw i32 %143, 1
  store i32 %144, i32* %10, align 4
  br label %109

145:                                              ; preds = %120
  br label %146

146:                                              ; preds = %145
  %147 = load i32, i32* %9, align 4
  %148 = add nsw i32 %147, 1
  store i32 %148, i32* %9, align 4
  br label %104

149:                                              ; preds = %104
  ret i32 0
}

; Function Attrs: argmemonly nounwind willreturn
declare void @llvm.memset.p0i8.i64(i8* nocapture writeonly, i8, i64, i1 immarg) #1

declare dso_local i32 @__isoc99_scanf(i8*, ...) #2

declare dso_local i32 @printf(i8*, ...) #2


!llvm.module.flags = !{!0}
!llvm.ident = !{!1}

!0 = !{i32 1, !"wchar_size", i32 4}
!1 = !{!"clang version 10.0.0-4ubuntu1 "}
